; Function Attrs: nounwind uwtable
define i32 @php_libxml_decrement_node_ptr(ptr noundef %0) local_unnamed_addr #0 {
  %.not = icmp eq ptr %0, null
  br i1 %.not, label %14, label %2

2:                                                ; preds = %1
  %3 = load ptr, ptr %0, align 8
  %.not12 = icmp eq ptr %3, null
  br i1 %.not12, label %14, label %4

4:                                                ; preds = %2
  %5 = getelementptr inbounds i8, ptr %3, i64 8
  %6 = load i32, ptr %5, align 8
  %7 = add nsw i32 %6, -1
  store i32 %7, ptr %5, align 8
  %8 = icmp eq i32 %7, 0
  br i1 %8, label %9, label %13

9:                                                ; preds = %4
  %10 = load ptr, ptr %3, align 8
  %.not13 = icmp eq ptr %10, null
  br i1 %.not13, label %12, label %11

11:                                               ; preds = %9
  store ptr null, ptr %10, align 8
  br label %12

12:                                               ; preds = %11, %9
  tail call void @_efree(ptr noundef nonnull %3) #17
  br label %13

13:                                               ; preds = %12, %4
  store ptr null, ptr %0, align 8
  br label %14

14:                                               ; preds = %13, %2, %1
  %.0 = phi i32 [ %7, %13 ], [ -1, %2 ], [ -1, %1 ]
  ret i32 %.0
}